; ModuleID = 'bench/openjdk/original/ciUtilities.ll'
source_filename = "bench/openjdk/original/ciUtilities.ll"
target datalayout = "e-m:e-p270:32:32-p271:32:32-p272:64:64-i64:64-i128:128-f80:128-n8:16:32:64-S128"
target triple = "x86_64-pc-linux-gnu"

@.str = private unnamed_addr constant [8 x i8] c"illegal\00", align 1
@_ZN10BarrierSet12_barrier_setE = external local_unnamed_addr global ptr, align 8
@llvm.global_ctors = appending global [0 x { i32, ptr, ptr }] zeroinitializer

; Function Attrs: mustprogress nounwind uwtable
define hidden noundef nonnull ptr @_Z16basictype_to_str9BasicType(i8 noundef zeroext %0) local_unnamed_addr #0 {
  %2 = tail call noundef ptr @_Z9type2name9BasicType(i8 noundef zeroext %0) #3
  %3 = icmp eq ptr %2, null
  %.str. = select i1 %3, ptr @.str, ptr %2
  ret ptr %.str.
}

declare noundef ptr @_Z9type2name9BasicType(i8 noundef zeroext) local_unnamed_addr #1

; Function Attrs: mustprogress nofree norecurse nosync nounwind willreturn memory(read, inaccessiblemem: none) uwtable
define hidden noundef ptr @_Z21ci_card_table_addressv() local_unnamed_addr #2 {
  %1 = load ptr, ptr @_ZN10BarrierSet12_barrier_setE, align 8
  %2 = getelementptr inbounds i8, ptr %1, i64 72
  %3 = load ptr, ptr %2, align 8
  %4 = getelementptr inbounds i8, ptr %3, i64 48
  %5 = load ptr, ptr %4, align 8
  ret ptr %5
}


!llvm.module.flags = !{!0, !1, !2, !3, !4, !5}

!0 = !{i32 7, !"Dwarf Version", i32 5}
!1 = !{i32 2, !"Debug Info Version", i32 3}
!2 = !{i32 1, !"wchar_size", i32 4}
!3 = !{i32 8, !"PIC Level", i32 2}
!4 = !{i32 7, !"uwtable", i32 2}
!5 = !{i32 7, !"frame-pointer", i32 2}
